; ModuleID = '16/1010.c'
source_filename = "16/1010.c"
target datalayout = "e-m:e-p270:32:32-p271:32:32-p272:64:64-i64:64-f80:128-n8:16:32:64-S128"
target triple = "x86_64-pc-linux-gnu"

@.str = private unnamed_addr constant [3 x i8] c"%d\00", align 1
@.str.1 = private unnamed_addr constant [5 x i8] c"%d%d\00", align 1
@.str.2 = private unnamed_addr constant [7 x i8] c"%d%d%d\00", align 1
@.str.3 = private unnamed_addr constant [9 x i8] c"%d%d%d%d\00", align 1

; Function Attrs: noinline nounwind uwtable
define dso_local i32 @main() #0 {
  %1 = alloca i32, align 4
  %2 = alloca i32, align 4
  %3 = alloca i32, align 4
  %4 = alloca i32, align 4
  %5 = alloca i32, align 4
  %6 = alloca i32, align 4
  %7 = alloca i32, align 4
  store i32 0, i32* %1, align 4
  %8 = call i32 (i8*, ...) @__isoc99_scanf(i8* getelementptr inbounds ([3 x i8], [3 x i8]* @.str, i64 0, i64 0), i32* %2)
  %9 = load i32, i32* %2, align 4
  %10 = sub nsw i32 %9, 10
  %11 = icmp slt i32 %10, 0
  br i1 %11, label %12, label %15

12:                                               ; preds = %0
  %13 = load i32, i32* %2, align 4
  %14 = call i32 (i8*, ...) @printf(i8* getelementptr inbounds ([3 x i8], [3 x i8]* @.str, i64 0, i64 0), i32 %13)
  br label %90

15:                                               ; preds = %0
  %16 = load i32, i32* %2, align 4
  %17 = sub nsw i32 %16, 100
  %18 = icmp slt i32 %17, 0
  br i1 %18, label %19, label %29

19:                                               ; preds = %15
  %20 = load i32, i32* %2, align 4
  %21 = srem i32 %20, 10
  store i32 %21, i32* %3, align 4
  %22 = load i32, i32* %2, align 4
  %23 = load i32, i32* %3, align 4
  %24 = sub nsw i32 %22, %23
  %25 = sdiv i32 %24, 10
  store i32 %25, i32* %4, align 4
  %26 = load i32, i32* %3, align 4
  %27 = load i32, i32* %4, align 4
  %28 = call i32 (i8*, ...) @printf(i8* getelementptr inbounds ([5 x i8], [5 x i8]* @.str.1, i64 0, i64 0), i32 %26, i32 %27)
  br label %89

29:                                               ; preds = %15
  %30 = load i32, i32* %2, align 4
  %31 = sub nsw i32 %30, 1000
  %32 = icmp slt i32 %31, 0
  br i1 %32, label %33, label %52

33:                                               ; preds = %29
  %34 = load i32, i32* %2, align 4
  %35 = srem i32 %34, 10
  store i32 %35, i32* %3, align 4
  %36 = load i32, i32* %2, align 4
  %37 = load i32, i32* %3, align 4
  %38 = sub nsw i32 %36, %37
  %39 = sdiv i32 %38, 10
  %40 = srem i32 %39, 10
  store i32 %40, i32* %4, align 4
  %41 = load i32, i32* %2, align 4
  %42 = load i32, i32* %3, align 4
  %43 = sub nsw i32 %41, %42
  %44 = load i32, i32* %4, align 4
  %45 = mul nsw i32 10, %44
  %46 = sub nsw i32 %43, %45
  %47 = sdiv i32 %46, 100
  store i32 %47, i32* %5, align 4
  %48 = load i32, i32* %3, align 4
  %49 = load i32, i32* %4, align 4
  %50 = load i32, i32* %5, align 4
  %51 = call i32 (i8*, ...) @printf(i8* getelementptr inbounds ([7 x i8], [7 x i8]* @.str.2, i64 0, i64 0), i32 %48, i32 %49, i32 %50)
  br label %88

52:                                               ; preds = %29
  %53 = load i32, i32* %2, align 4
  %54 = sub nsw i32 %53, 10000
  %55 = icmp slt i32 %54, 0
  br i1 %55, label %56, label %87

56:                                               ; preds = %52
  %57 = load i32, i32* %2, align 4
  %58 = srem i32 %57, 10
  store i32 %58, i32* %3, align 4
  %59 = load i32, i32* %2, align 4
  %60 = load i32, i32* %3, align 4
  %61 = sub nsw i32 %59, %60
  %62 = srem i32 %61, 100
  %63 = sdiv i32 %62, 10
  store i32 %63, i32* %4, align 4
  %64 = load i32, i32* %2, align 4
  %65 = load i32, i32* %3, align 4
  %66 = sub nsw i32 %64, %65
  %67 = load i32, i32* %4, align 4
  %68 = mul nsw i32 10, %67
  %69 = sub nsw i32 %66, %68
  %70 = srem i32 %69, 1000
  %71 = sdiv i32 %70, 100
  store i32 %71, i32* %5, align 4
  %72 = load i32, i32* %2, align 4
  %73 = load i32, i32* %3, align 4
  %74 = sub nsw i32 %72, %73
  %75 = load i32, i32* %4, align 4
  %76 = mul nsw i32 10, %75
  %77 = sub nsw i32 %74, %76
  %78 = load i32, i32* %5, align 4
  %79 = mul nsw i32 100, %78
  %80 = sub nsw i32 %77, %79
  %81 = sdiv i32 %80, 1000
  store i32 %81, i32* %6, align 4
  %82 = load i32, i32* %3, align 4
  %83 = load i32, i32* %4, align 4
  %84 = load i32, i32* %5, align 4
  %85 = load i32, i32* %6, align 4
  %86 = call i32 (i8*, ...) @printf(i8* getelementptr inbounds ([9 x i8], [9 x i8]* @.str.3, i64 0, i64 0), i32 %82, i32 %83, i32 %84, i32 %85)
  br label %87

87:                                               ; preds = %56, %52
  br label %88

88:                                               ; preds = %87, %33
  br label %89

89:                                               ; preds = %88, %19
  br label %90

90:                                               ; preds = %89, %12
  ret i32 0
}

declare dso_local i32 @__isoc99_scanf(i8*, ...) #1

declare dso_local i32 @printf(i8*, ...) #1


!llvm.module.flags = !{!0}
!llvm.ident = !{!1}

!0 = !{i32 1, !"wchar_size", i32 4}
!1 = !{!"clang version 10.0.0-4ubuntu1 "}
